target datalayout = "e-m:e-p270:32:32-p271:32:32-p272:64:64-i64:64-i128:128-f80:128-n8:16:32:64-S128"
target triple = "x86_64-pc-linux-gnu"

%struct.AVFilterContext = type { ptr, ptr, ptr, ptr, ptr, i32, ptr, ptr, i32, ptr, ptr, i32, i32, ptr, ptr, ptr, ptr, i32, ptr, i32, i32 }
%struct.YAEPContext = type { ptr, i32, i32, i32, i32, [4 x i32], [4 x i32], i32, ptr, ptr, i32, ptr, ptr }
%struct.ThreadData = type { i32, i32, i32, i32, ptr, ptr }

; Function Attrs: nounwind uwtable
define internal i32 @pre_calculate_row_word(ptr noundef %0, ptr noundef %1, i32 noundef %2, i32 noundef %3) #2 {
  %5 = alloca ptr, align 8
  %6 = alloca ptr, align 8
  %7 = alloca i32, align 4
  %8 = alloca i32, align 4
  %9 = alloca ptr, align 8
  %10 = alloca ptr, align 8
  %11 = alloca i32, align 4
  %12 = alloca i32, align 4
  %13 = alloca i32, align 4
  %14 = alloca i32, align 4
  %15 = alloca i32, align 4
  %16 = alloca i32, align 4
  %17 = alloca ptr, align 8
  %18 = alloca ptr, align 8
  %19 = alloca ptr, align 8
  %20 = alloca i32, align 4
  %21 = alloca i32, align 4
  store ptr %0, ptr %5, align 8, !tbaa !4
  store ptr %1, ptr %6, align 8, !tbaa !70
  store i32 %2, ptr %7, align 4, !tbaa !37
  store i32 %3, ptr %8, align 4, !tbaa !37
  call void @llvm.lifetime.start.p0(i64 8, ptr %9) #6
  %22 = load ptr, ptr %6, align 8, !tbaa !70
  store ptr %22, ptr %9, align 8, !tbaa !71
  call void @llvm.lifetime.start.p0(i64 8, ptr %10) #6
  %23 = load ptr, ptr %5, align 8, !tbaa !4
  %24 = getelementptr inbounds nuw %struct.AVFilterContext, ptr %23, i32 0, i32 9
  %25 = load ptr, ptr %24, align 8, !tbaa !9
  store ptr %25, ptr %10, align 8, !tbaa !22
  call void @llvm.lifetime.start.p0(i64 4, ptr %11) #6
  %26 = load ptr, ptr %9, align 8, !tbaa !71
  %27 = getelementptr inbounds nuw %struct.ThreadData, ptr %26, i32 0, i32 0
  %28 = load i32, ptr %27, align 8, !tbaa !47
  store i32 %28, ptr %11, align 4, !tbaa !37
  call void @llvm.lifetime.start.p0(i64 4, ptr %12) #6
  %29 = load ptr, ptr %9, align 8, !tbaa !71
  %30 = getelementptr inbounds nuw %struct.ThreadData, ptr %29, i32 0, i32 1
  %31 = load i32, ptr %30, align 4, !tbaa !49
  store i32 %31, ptr %12, align 4, !tbaa !37
  call void @llvm.lifetime.start.p0(i64 4, ptr %13) #6
  %32 = load ptr, ptr %9, align 8, !tbaa !71
  %33 = getelementptr inbounds nuw %struct.ThreadData, ptr %32, i32 0, i32 2
  %34 = load i32, ptr %33, align 8, !tbaa !51
  %35 = sext i32 %34 to i64
  %36 = udiv i64 %35, 2
  %37 = trunc i64 %36 to i32
  store i32 %37, ptr %13, align 4, !tbaa !37
  call void @llvm.lifetime.start.p0(i64 4, ptr %14) #6
  %38 = load ptr, ptr %10, align 8, !tbaa !22
  %39 = getelementptr inbounds nuw %struct.YAEPContext, ptr %38, i32 0, i32 10
  %40 = load i32, ptr %39, align 8, !tbaa !67
  store i32 %40, ptr %14, align 4, !tbaa !37
  call void @llvm.lifetime.start.p0(i64 4, ptr %15) #6
  %41 = load i32, ptr %12, align 4, !tbaa !37
  %42 = load i32, ptr %7, align 4, !tbaa !37
  %43 = mul nsw i32 %41, %42
  %44 = load i32, ptr %8, align 4, !tbaa !37
  %45 = sdiv i32 %43, %44
  store i32 %45, ptr %15, align 4, !tbaa !37
  call void @llvm.lifetime.start.p0(i64 4, ptr %16) #6
  %46 = load i32, ptr %12, align 4, !tbaa !37
  %47 = load i32, ptr %7, align 4, !tbaa !37
  %48 = add nsw i32 %47, 1
  %49 = mul nsw i32 %46, %48
  %50 = load i32, ptr %8, align 4, !tbaa !37
  %51 = sdiv i32 %49, %50
  store i32 %51, ptr %16, align 4, !tbaa !37
  call void @llvm.lifetime.start.p0(i64 8, ptr %17) #6
  %52 = load ptr, ptr %10, align 8, !tbaa !22
  %53 = getelementptr inbounds nuw %struct.YAEPContext, ptr %52, i32 0, i32 8
  %54 = load ptr, ptr %53, align 8, !tbaa !68
  %55 = load i32, ptr %15, align 4, !tbaa !37
  %56 = add nsw i32 %55, 1
  %57 = load i32, ptr %14, align 4, !tbaa !37
  %58 = mul nsw i32 %56, %57
  %59 = sext i32 %58 to i64
  %60 = getelementptr inbounds i64, ptr %54, i64 %59
  store ptr %60, ptr %17, align 8, !tbaa !73
  call void @llvm.lifetime.start.p0(i64 8, ptr %18) #6
  %61 = load ptr, ptr %10, align 8, !tbaa !22
  %62 = getelementptr inbounds nuw %struct.YAEPContext, ptr %61, i32 0, i32 9
  %63 = load ptr, ptr %62, align 8, !tbaa !69
  %64 = load i32, ptr %15, align 4, !tbaa !37
  %65 = add nsw i32 %64, 1
  %66 = load i32, ptr %14, align 4, !tbaa !37
  %67 = mul nsw i32 %65, %66
  %68 = sext i32 %67 to i64
  %69 = getelementptr inbounds i64, ptr %63, i64 %68
  store ptr %69, ptr %18, align 8, !tbaa !73
  call void @llvm.lifetime.start.p0(i64 8, ptr %19) #6
  %70 = load ptr, ptr %9, align 8, !tbaa !71
  %71 = getelementptr inbounds nuw %struct.ThreadData, ptr %70, i32 0, i32 4
  %72 = load ptr, ptr %71, align 8, !tbaa !50
  %73 = load i32, ptr %15, align 4, !tbaa !37
  %74 = load i32, ptr %13, align 4, !tbaa !37
  %75 = mul nsw i32 %73, %74
  %76 = sext i32 %75 to i64
  %77 = getelementptr inbounds i16, ptr %72, i64 %76
  store ptr %77, ptr %19, align 8, !tbaa !83
  call void @llvm.lifetime.start.p0(i64 4, ptr %20) #6
  call void @llvm.lifetime.start.p0(i64 4, ptr %21) #6
  %78 = load i32, ptr %15, align 4, !tbaa !37
  store i32 %78, ptr %21, align 4, !tbaa !37
  br label %79

79:                                               ; preds = %146, %4
  %80 = load i32, ptr %21, align 4, !tbaa !37
  %81 = load i32, ptr %16, align 4, !tbaa !37
  %82 = icmp slt i32 %80, %81
  br i1 %82, label %83, label %149

83:                                               ; preds = %79
  store i32 0, ptr %20, align 4, !tbaa !37
  br label %84

84:                                               ; preds = %130, %83
  %85 = load i32, ptr %20, align 4, !tbaa !37
  %86 = load i32, ptr %11, align 4, !tbaa !37
  %87 = icmp slt i32 %85, %86
  br i1 %87, label %88, label %133

88:                                               ; preds = %84
  %89 = load ptr, ptr %17, align 8, !tbaa !73
  %90 = load i32, ptr %20, align 4, !tbaa !37
  %91 = sext i32 %90 to i64
  %92 = getelementptr inbounds i64, ptr %89, i64 %91
  %93 = load i64, ptr %92, align 8, !tbaa !74
  %94 = load ptr, ptr %19, align 8, !tbaa !83
  %95 = load i32, ptr %20, align 4, !tbaa !37
  %96 = sext i32 %95 to i64
  %97 = getelementptr inbounds i16, ptr %94, i64 %96
  %98 = load i16, ptr %97, align 2, !tbaa !85
  %99 = zext i16 %98 to i64
  %100 = add i64 %93, %99
  %101 = load ptr, ptr %17, align 8, !tbaa !73
  %102 = load i32, ptr %20, align 4, !tbaa !37
  %103 = add nsw i32 %102, 1
  %104 = sext i32 %103 to i64
  %105 = getelementptr inbounds i64, ptr %101, i64 %104
  store i64 %100, ptr %105, align 8, !tbaa !74
  %106 = load ptr, ptr %18, align 8, !tbaa !73
  %107 = load i32, ptr %20, align 4, !tbaa !37
  %108 = sext i32 %107 to i64
  %109 = getelementptr inbounds i64, ptr %106, i64 %108
  %110 = load i64, ptr %109, align 8, !tbaa !74
  %111 = load ptr, ptr %19, align 8, !tbaa !83
  %112 = load i32, ptr %20, align 4, !tbaa !37
  %113 = sext i32 %112 to i64
  %114 = getelementptr inbounds i16, ptr %111, i64 %113
  %115 = load i16, ptr %114, align 2, !tbaa !85
  %116 = zext i16 %115 to i64
  %117 = load ptr, ptr %19, align 8, !tbaa !83
  %118 = load i32, ptr %20, align 4, !tbaa !37
  %119 = sext i32 %118 to i64
  %120 = getelementptr inbounds i16, ptr %117, i64 %119
  %121 = load i16, ptr %120, align 2, !tbaa !85
  %122 = zext i16 %121 to i64
  %123 = mul i64 %116, %122
  %124 = add i64 %110, %123
  %125 = load ptr, ptr %18, align 8, !tbaa !73
  %126 = load i32, ptr %20, align 4, !tbaa !37
  %127 = add nsw i32 %126, 1
  %128 = sext i32 %127 to i64
  %129 = getelementptr inbounds i64, ptr %125, i64 %128
  store i64 %124, ptr %129, align 8, !tbaa !74
  br label %130

130:                                              ; preds = %88
  %131 = load i32, ptr %20, align 4, !tbaa !37
  %132 = add nsw i32 %131, 1
  store i32 %132, ptr %20, align 4, !tbaa !37
  br label %84, !llvm.loop !87

133:                                              ; preds = %84
  %134 = load i32, ptr %14, align 4, !tbaa !37
  %135 = load ptr, ptr %17, align 8, !tbaa !73
  %136 = sext i32 %134 to i64
  %137 = getelementptr inbounds i64, ptr %135, i64 %136
  store ptr %137, ptr %17, align 8, !tbaa !73
  %138 = load i32, ptr %14, align 4, !tbaa !37
  %139 = load ptr, ptr %18, align 8, !tbaa !73
  %140 = sext i32 %138 to i64
  %141 = getelementptr inbounds i64, ptr %139, i64 %140
  store ptr %141, ptr %18, align 8, !tbaa !73
  %142 = load i32, ptr %13, align 4, !tbaa !37
  %143 = load ptr, ptr %19, align 8, !tbaa !83
  %144 = sext i32 %142 to i64
  %145 = getelementptr inbounds i16, ptr %143, i64 %144
  store ptr %145, ptr %19, align 8, !tbaa !83
  br label %146

146:                                              ; preds = %133
  %147 = load i32, ptr %21, align 4, !tbaa !37
  %148 = add nsw i32 %147, 1
  store i32 %148, ptr %21, align 4, !tbaa !37
  br label %79, !llvm.loop !88

149:                                              ; preds = %79
  call void @llvm.lifetime.end.p0(i64 4, ptr %21) #6
  call void @llvm.lifetime.end.p0(i64 4, ptr %20) #6
  call void @llvm.lifetime.end.p0(i64 8, ptr %19) #6
  call void @llvm.lifetime.end.p0(i64 8, ptr %18) #6
  call void @llvm.lifetime.end.p0(i64 8, ptr %17) #6
  call void @llvm.lifetime.end.p0(i64 4, ptr %16) #6
  call void @llvm.lifetime.end.p0(i64 4, ptr %15) #6
  call void @llvm.lifetime.end.p0(i64 4, ptr %14) #6
  call void @llvm.lifetime.end.p0(i64 4, ptr %13) #6
  call void @llvm.lifetime.end.p0(i64 4, ptr %12) #6
  call void @llvm.lifetime.end.p0(i64 4, ptr %11) #6
  call void @llvm.lifetime.end.p0(i64 8, ptr %10) #6
  call void @llvm.lifetime.end.p0(i64 8, ptr %9) #6
  ret i32 0
}