; Function Attrs: nofree norecurse nosync nounwind memory(readwrite, inaccessiblemem: none) uwtable
define internal noundef i32 @pre_calculate_row_word(ptr noundef readonly captures(none) %0, ptr noundef readonly captures(none) %1, i32 noundef %2, i32 noundef %3) #5 {
  %5 = load i32, ptr %1, align 8, !tbaa !44
  %6 = getelementptr inbounds nuw i8, ptr %1, i64 4
  %7 = load i32, ptr %6, align 4, !tbaa !46
  %8 = mul nsw i32 %7, %2
  %9 = sdiv i32 %8, %3
  %10 = add nsw i32 %2, 1
  %11 = mul nsw i32 %7, %10
  %12 = sdiv i32 %11, %3
  %13 = icmp slt i32 %9, %12
  br i1 %13, label %.preheader.lr.ph, label %._crit_edge56

.preheader.lr.ph:                                 ; preds = %4
  %14 = getelementptr inbounds nuw i8, ptr %1, i64 8
  %15 = load i32, ptr %14, align 8, !tbaa !48
  %16 = ashr i32 %15, 1
  %17 = getelementptr inbounds nuw i8, ptr %0, i64 72
  %18 = load ptr, ptr %17, align 8, !tbaa !4
  %19 = getelementptr inbounds nuw i8, ptr %18, i64 80
  %20 = load i32, ptr %19, align 8, !tbaa !62
  %21 = icmp sgt i32 %5, 0
  %22 = sext i32 %20 to i64
  %23 = sext i32 %16 to i64
  br i1 %21, label %.preheader.us.preheader, label %._crit_edge56

.preheader.us.preheader:                          ; preds = %.preheader.lr.ph
  %24 = getelementptr inbounds nuw i8, ptr %18, i64 64
  %25 = load ptr, ptr %24, align 8, !tbaa !63
  %26 = add nsw i32 %9, 1
  %27 = mul i32 %26, %20
  %28 = sext i32 %27 to i64
  %29 = getelementptr inbounds i64, ptr %25, i64 %28
  %30 = getelementptr inbounds nuw i8, ptr %18, i64 72
  %31 = load ptr, ptr %30, align 8, !tbaa !64
  %32 = getelementptr inbounds i64, ptr %31, i64 %28
  %33 = getelementptr inbounds nuw i8, ptr %1, i64 16
  %34 = load ptr, ptr %33, align 8, !tbaa !47
  %35 = mul nsw i32 %9, %16
  %36 = sext i32 %35 to i64
  %37 = getelementptr inbounds i16, ptr %34, i64 %36
  %wide.trip.count = zext nneg i32 %5 to i64
  %38 = add nsw i64 %28, %wide.trip.count
  %39 = shl nsw i64 %38, 3
  %40 = add nsw i64 %39, 8
  %41 = shl nsw i64 %22, 3
  br label %.lver.check

.lver.check:                                      ; preds = %.preheader.us.preheader, %._crit_edge.us
  %indvar = phi i64 [ 0, %.preheader.us.preheader ], [ %indvar.next, %._crit_edge.us ]
  %.055.us = phi i32 [ %9, %.preheader.us.preheader ], [ %68, %._crit_edge.us ]
  %.04854.us = phi ptr [ %37, %.preheader.us.preheader ], [ %67, %._crit_edge.us ]
  %.04953.us = phi ptr [ %32, %.preheader.us.preheader ], [ %66, %._crit_edge.us ]
  %.05052.us = phi ptr [ %29, %.preheader.us.preheader ], [ %65, %._crit_edge.us ]
  %42 = mul i64 %41, %indvar
  %43 = add i64 %40, %42
  %scevgep = getelementptr i8, ptr %25, i64 %43
  %scevgep60 = getelementptr i8, ptr %31, i64 %43
  %bound0 = icmp ult ptr %.05052.us, %scevgep60
  %bound1 = icmp ult ptr %.04953.us, %scevgep
  %found.conflict = and i1 %bound0, %bound1
  br i1 %found.conflict, label %.ph.lver.orig, label %.ph

.ph.lver.orig:                                    ; preds = %.lver.check, %.ph.lver.orig
  %indvars.iv.lver.orig = phi i64 [ %indvars.iv.next.lver.orig, %.ph.lver.orig ], [ 0, %.lver.check ]
  %44 = getelementptr inbounds nuw i64, ptr %.05052.us, i64 %indvars.iv.lver.orig
  %45 = load i64, ptr %44, align 8, !tbaa !65
  %46 = getelementptr inbounds nuw i16, ptr %.04854.us, i64 %indvars.iv.lver.orig
  %47 = load i16, ptr %46, align 2, !tbaa !74
  %48 = zext i16 %47 to i64
  %49 = add i64 %45, %48
  %indvars.iv.next.lver.orig = add nuw nsw i64 %indvars.iv.lver.orig, 1
  %50 = getelementptr inbounds nuw i64, ptr %.05052.us, i64 %indvars.iv.next.lver.orig
  store i64 %49, ptr %50, align 8, !tbaa !65
  %51 = getelementptr inbounds nuw i64, ptr %.04953.us, i64 %indvars.iv.lver.orig
  %52 = load i64, ptr %51, align 8, !tbaa !65
  %53 = mul nuw nsw i64 %48, %48
  %54 = add i64 %52, %53
  %55 = getelementptr inbounds nuw i64, ptr %.04953.us, i64 %indvars.iv.next.lver.orig
  store i64 %54, ptr %55, align 8, !tbaa !65
  %exitcond.not.lver.orig = icmp eq i64 %indvars.iv.next.lver.orig, %wide.trip.count
  br i1 %exitcond.not.lver.orig, label %._crit_edge.us, label %.ph.lver.orig, !llvm.loop !76

.ph:                                              ; preds = %.lver.check
  %load_initial = load i64, ptr %.05052.us, align 8
  %load_initial62 = load i64, ptr %.04953.us, align 8
  br label %56

56:                                               ; preds = %.ph, %56
  %store_forwarded63 = phi i64 [ %load_initial62, %.ph ], [ %63, %56 ]
  %store_forwarded = phi i64 [ %load_initial, %.ph ], [ %60, %56 ]
  %indvars.iv = phi i64 [ 0, %.ph ], [ %indvars.iv.next, %56 ]
  %57 = getelementptr inbounds nuw i16, ptr %.04854.us, i64 %indvars.iv
  %58 = load i16, ptr %57, align 2, !tbaa !74
  %59 = zext i16 %58 to i64
  %60 = add i64 %store_forwarded, %59
  %indvars.iv.next = add nuw nsw i64 %indvars.iv, 1
  %61 = getelementptr inbounds nuw i64, ptr %.05052.us, i64 %indvars.iv.next
  store i64 %60, ptr %61, align 8, !tbaa !65
  %62 = mul nuw nsw i64 %59, %59
  %63 = add i64 %store_forwarded63, %62
  %64 = getelementptr inbounds nuw i64, ptr %.04953.us, i64 %indvars.iv.next
  store i64 %63, ptr %64, align 8, !tbaa !65
  %exitcond.not = icmp eq i64 %indvars.iv.next, %wide.trip.count
  br i1 %exitcond.not, label %._crit_edge.us, label %56, !llvm.loop !76

._crit_edge.us:                                   ; preds = %56, %.ph.lver.orig
  %65 = getelementptr inbounds i64, ptr %.05052.us, i64 %22
  %66 = getelementptr inbounds i64, ptr %.04953.us, i64 %22
  %67 = getelementptr inbounds i16, ptr %.04854.us, i64 %23
  %68 = add nsw i32 %.055.us, 1
  %exitcond59.not = icmp eq i32 %68, %12
  %indvar.next = add i64 %indvar, 1
  br i1 %exitcond59.not, label %._crit_edge56, label %.lver.check, !llvm.loop !77

._crit_edge56:                                    ; preds = %._crit_edge.us, %.preheader.lr.ph, %4
  ret i32 0
}